target datalayout = "e-m:e-p270:32:32-p271:32:32-p272:64:64-i64:64-i128:128-f80:128-n8:16:32:64-S128"
target triple = "x86_64-pc-linux-gnu"

%"class.std::__cxx11::basic_string" = type { %"struct.std::__cxx11::basic_string<char>::_Alloc_hider", i64, %union.anon }
%"struct.std::__cxx11::basic_string<char>::_Alloc_hider" = type { ptr }
%union.anon = type { i64, [8 x i8] }
%"class.rocksdb::Slice" = type { ptr, i64 }
%"class.rocksdb::UserComparatorWrapper" = type { ptr }
%"class.rocksdb::DBIter" = type { %"class.rocksdb::Iterator", ptr, ptr, ptr, ptr, %"class.rocksdb::UserComparatorWrapper", ptr, %"class.rocksdb::IteratorWrapperBase", %"class.rocksdb::DBIter::BlobReader", ptr, i64, %"class.rocksdb::IterKey", %"struct.rocksdb::ParsedInternalKey", i64, %"class.std::__cxx11::basic_string", %"class.rocksdb::Slice", %"class.rocksdb::Slice", %"class.std::vector.3", ptr, i64, i64, i64, ptr, ptr, %"class.rocksdb::IterKey", %"class.rocksdb::Status", i8, i8, i8, i8, i8, i8, i8, i8, i8, %"class.rocksdb::Slice", i8, i8, [6 x i8], %"class.rocksdb::MergeContext", %"struct.rocksdb::DBIter::LocalStatistics", %"class.rocksdb::PinnedIteratorsManager", ptr, ptr, ptr, i64, %"class.std::__cxx11::basic_string" }
%"class.rocksdb::Iterator" = type { %"class.rocksdb::IteratorBase" }
%"class.rocksdb::IteratorBase" = type { ptr, %"class.rocksdb::Cleanable" }
%"class.rocksdb::Cleanable" = type { %"struct.rocksdb::Cleanable::Cleanup" }
%"struct.rocksdb::Cleanable::Cleanup" = type { ptr, ptr, ptr, ptr }
%"class.rocksdb::IteratorWrapperBase" = type <{ ptr, %"struct.rocksdb::IterateResult", i8, [7 x i8] }>
%"struct.rocksdb::IterateResult" = type <{ %"class.rocksdb::Slice", i8, i8, [6 x i8] }>
%"class.rocksdb::DBIter::BlobReader" = type <{ %"class.rocksdb::PinnableSlice", ptr, i32, i8, i8, i8, i8 }>
%"class.rocksdb::PinnableSlice" = type <{ %"class.rocksdb::Slice", %"class.rocksdb::Cleanable", %"class.std::__cxx11::basic_string", ptr, i8, [7 x i8] }>
%"struct.rocksdb::ParsedInternalKey" = type <{ %"class.rocksdb::Slice", i64, i8, [7 x i8] }>
%"class.std::vector.3" = type { %"struct.std::_Vector_base.4" }
%"struct.std::_Vector_base.4" = type { %"struct.std::_Vector_base<rocksdb::WideColumn, std::allocator<rocksdb::WideColumn>>::_Vector_impl" }
%"struct.std::_Vector_base<rocksdb::WideColumn, std::allocator<rocksdb::WideColumn>>::_Vector_impl" = type { %"struct.std::_Vector_base<rocksdb::WideColumn, std::allocator<rocksdb::WideColumn>>::_Vector_impl_data" }
%"struct.std::_Vector_base<rocksdb::WideColumn, std::allocator<rocksdb::WideColumn>>::_Vector_impl_data" = type { ptr, ptr, ptr }
%"class.rocksdb::IterKey" = type { ptr, ptr, i64, i64, [39 x i8], i8, [39 x i8], ptr, i64, %"struct.std::array" }
%"struct.std::array" = type { [5 x %"class.rocksdb::Slice"] }
%"class.rocksdb::Status" = type { i8, i8, i8, i8, i8, i8, %"class.std::unique_ptr" }
%"class.std::unique_ptr" = type { %"struct.std::__uniq_ptr_data" }
%"struct.std::__uniq_ptr_data" = type { %"class.std::__uniq_ptr_impl" }
%"class.std::__uniq_ptr_impl" = type { %"class.std::tuple" }
%"class.std::tuple" = type { %"struct.std::_Tuple_impl" }
%"struct.std::_Tuple_impl" = type { %"struct.std::_Head_base.9" }
%"struct.std::_Head_base.9" = type { ptr }
%"class.rocksdb::MergeContext" = type <{ ptr, %"class.std::unique_ptr.10", %"class.std::unique_ptr.18", i8, [7 x i8] }>
%"class.std::unique_ptr.10" = type { %"struct.std::__uniq_ptr_data.11" }
%"struct.std::__uniq_ptr_data.11" = type { %"class.std::__uniq_ptr_impl.12" }
%"class.std::__uniq_ptr_impl.12" = type { %"class.std::tuple.13" }
%"class.std::tuple.13" = type { %"struct.std::_Tuple_impl.14" }
%"struct.std::_Tuple_impl.14" = type { %"struct.std::_Head_base.17" }
%"struct.std::_Head_base.17" = type { ptr }
%"class.std::unique_ptr.18" = type { %"struct.std::__uniq_ptr_data.19" }
%"struct.std::__uniq_ptr_data.19" = type { %"class.std::__uniq_ptr_impl.20" }
%"class.std::__uniq_ptr_impl.20" = type { %"class.std::tuple.21" }
%"class.std::tuple.21" = type { %"struct.std::_Tuple_impl.22" }
%"struct.std::_Tuple_impl.22" = type { %"struct.std::_Head_base.25" }
%"struct.std::_Head_base.25" = type { ptr }
%"struct.rocksdb::DBIter::LocalStatistics" = type { i64, i64, i64, i64, i64, i64 }
%"class.rocksdb::PinnedIteratorsManager" = type { %"class.rocksdb::Cleanable", i8, %"class.std::vector.26" }
%"class.std::vector.26" = type { %"struct.std::_Vector_base.27" }
%"struct.std::_Vector_base.27" = type { %"struct.std::_Vector_base<std::pair<void *, void (*)(void *)>, std::allocator<std::pair<void *, void (*)(void *)>>>::_Vector_impl" }
%"struct.std::_Vector_base<std::pair<void *, void (*)(void *)>, std::allocator<std::pair<void *, void (*)(void *)>>>::_Vector_impl" = type { %"struct.std::_Vector_base<std::pair<void *, void (*)(void *)>, std::allocator<std::pair<void *, void (*)(void *)>>>::_Vector_impl_data" }
%"struct.std::_Vector_base<std::pair<void *, void (*)(void *)>, std::allocator<std::pair<void *, void (*)(void *)>>>::_Vector_impl_data" = type { ptr, ptr, ptr }
%"class.rocksdb::ReadCallback" = type { ptr, i64, i64 }

; Function Attrs: mustprogress uwtable
define linkonce_odr noundef i32 @_ZNK7rocksdb21UserComparatorWrapper16CompareTimestampERKNS_5SliceES3_(ptr noundef nonnull align 8 dereferenceable(8) %0, ptr noundef nonnull align 8 dereferenceable(16) %1, ptr noundef nonnull align 8 dereferenceable(16) %2) #3 comdat align 2 {
  %4 = alloca ptr, align 8
  %5 = alloca ptr, align 8
  %6 = alloca ptr, align 8
  store ptr %0, ptr %4, align 8, !tbaa !10
  store ptr %1, ptr %5, align 8, !tbaa !13
  store ptr %2, ptr %6, align 8, !tbaa !13
  %7 = load ptr, ptr %4, align 8
  %8 = getelementptr inbounds nuw %"class.rocksdb::UserComparatorWrapper", ptr %7, i32 0, i32 0
  %9 = load ptr, ptr %8, align 8, !tbaa !19
  %10 = load ptr, ptr %5, align 8, !tbaa !13
  %11 = load ptr, ptr %6, align 8, !tbaa !13
  %12 = load ptr, ptr %9, align 8, !tbaa !22
  %13 = getelementptr inbounds ptr, ptr %12, i64 28
  %14 = load ptr, ptr %13, align 8
  %15 = call noundef i32 %14(ptr noundef nonnull align 8 dereferenceable(48) %9, ptr noundef nonnull align 8 dereferenceable(16) %10, ptr noundef nonnull align 8 dereferenceable(16) %11)
  ret i32 %15
}

; Function Attrs: inlinehint mustprogress uwtable
define linkonce_odr noundef zeroext i1 @_ZN7rocksdb12ReadCallback9IsVisibleEm(ptr noundef nonnull align 8 dereferenceable(24) %0, i64 noundef %1) #4 comdat align 2 {
  %3 = alloca i1, align 1
  %4 = alloca ptr, align 8
  %5 = alloca i64, align 8
  store ptr %0, ptr %4, align 8, !tbaa !80
  store i64 %1, ptr %5, align 8, !tbaa !4
  %6 = load ptr, ptr %4, align 8
  %7 = load i64, ptr %5, align 8, !tbaa !4
  %8 = getelementptr inbounds nuw %"class.rocksdb::ReadCallback", ptr %6, i32 0, i32 2
  %9 = load i64, ptr %8, align 8, !tbaa !369
  %10 = icmp ult i64 %7, %9
  br i1 %10, label %11, label %12

11:                                               ; preds = %2
  store i1 true, ptr %3, align 1
  br label %24

12:                                               ; preds = %2
  %13 = getelementptr inbounds nuw %"class.rocksdb::ReadCallback", ptr %6, i32 0, i32 1
  %14 = load i64, ptr %13, align 8, !tbaa !371
  %15 = load i64, ptr %5, align 8, !tbaa !4
  %16 = icmp ult i64 %14, %15
  br i1 %16, label %17, label %18

17:                                               ; preds = %12
  store i1 false, ptr %3, align 1
  br label %24

18:                                               ; preds = %12
  %19 = load i64, ptr %5, align 8, !tbaa !4
  %20 = load ptr, ptr %6, align 8, !tbaa !22
  %21 = getelementptr inbounds ptr, ptr %20, i64 2
  %22 = load ptr, ptr %21, align 8
  %23 = call noundef zeroext i1 %22(ptr noundef nonnull align 8 dereferenceable(24) %6, i64 noundef %19)
  store i1 %23, ptr %3, align 1
  br label %24

24:                                               ; preds = %18, %17, %11
  %25 = load i1, ptr %3, align 1
  ret i1 %25
}

; Function Attrs: mustprogress uwtable
define noundef zeroext i1 @_ZN7rocksdb6DBIter9IsVisibleEmRKNS_5SliceEPb(ptr noundef nonnull align 8 dereferenceable(1112) %0, i64 noundef %1, ptr noundef nonnull align 8 dereferenceable(16) %2, ptr noundef %3) #3 align 2 {
  %5 = alloca ptr, align 8
  %6 = alloca i64, align 8
  %7 = alloca ptr, align 8
  %8 = alloca ptr, align 8
  %9 = alloca i8, align 1
  %10 = alloca i8, align 1
  store ptr %0, ptr %5, align 8, !tbaa !63
  store i64 %1, ptr %6, align 8, !tbaa !4
  store ptr %2, ptr %7, align 8, !tbaa !13
  store ptr %3, ptr %8, align 8, !tbaa !355
  %11 = load ptr, ptr %5, align 8
  call void @llvm.lifetime.start.p0(i64 1, ptr %9) #6
  %12 = getelementptr inbounds nuw %"class.rocksdb::DBIter", ptr %11, i32 0, i32 9
  %13 = load ptr, ptr %12, align 8, !tbaa !211
  %14 = icmp eq ptr %13, null
  br i1 %14, label %15, label %20

15:                                               ; preds = %4
  %16 = load i64, ptr %6, align 8, !tbaa !4
  %17 = getelementptr inbounds nuw %"class.rocksdb::DBIter", ptr %11, i32 0, i32 10
  %18 = load i64, ptr %17, align 8, !tbaa !212
  %19 = icmp ule i64 %16, %18
  br label %25

20:                                               ; preds = %4
  %21 = getelementptr inbounds nuw %"class.rocksdb::DBIter", ptr %11, i32 0, i32 9
  %22 = load ptr, ptr %21, align 8, !tbaa !211
  %23 = load i64, ptr %6, align 8, !tbaa !4
  %24 = call noundef zeroext i1 @_ZN7rocksdb12ReadCallback9IsVisibleEm(ptr noundef nonnull align 8 dereferenceable(24) %22, i64 noundef %23)
  br label %25

25:                                               ; preds = %20, %15
  %26 = phi i1 [ %19, %15 ], [ %24, %20 ]
  %27 = zext i1 %26 to i8
  store i8 %27, ptr %9, align 1, !tbaa !78
  call void @llvm.lifetime.start.p0(i64 1, ptr %10) #6
  %28 = getelementptr inbounds nuw %"class.rocksdb::DBIter", ptr %11, i32 0, i32 43
  %29 = load ptr, ptr %28, align 8, !tbaa !241
  %30 = icmp eq ptr %29, null
  br i1 %30, label %38, label %31

31:                                               ; preds = %25
  %32 = getelementptr inbounds nuw %"class.rocksdb::DBIter", ptr %11, i32 0, i32 5
  %33 = load ptr, ptr %7, align 8, !tbaa !13
  %34 = getelementptr inbounds nuw %"class.rocksdb::DBIter", ptr %11, i32 0, i32 43
  %35 = load ptr, ptr %34, align 8, !tbaa !241
  %36 = call noundef i32 @_ZNK7rocksdb21UserComparatorWrapper16CompareTimestampERKNS_5SliceES3_(ptr noundef nonnull align 8 dereferenceable(8) %32, ptr noundef nonnull align 8 dereferenceable(16) %33, ptr noundef nonnull align 8 dereferenceable(16) %35)
  %37 = icmp sle i32 %36, 0
  br i1 %37, label %38, label %51

38:                                               ; preds = %31, %25
  %39 = getelementptr inbounds nuw %"class.rocksdb::DBIter", ptr %11, i32 0, i32 44
  %40 = load ptr, ptr %39, align 8, !tbaa !243
  %41 = icmp eq ptr %40, null
  br i1 %41, label %49, label %42

42:                                               ; preds = %38
  %43 = getelementptr inbounds nuw %"class.rocksdb::DBIter", ptr %11, i32 0, i32 5
  %44 = load ptr, ptr %7, align 8, !tbaa !13
  %45 = getelementptr inbounds nuw %"class.rocksdb::DBIter", ptr %11, i32 0, i32 44
  %46 = load ptr, ptr %45, align 8, !tbaa !243
  %47 = call noundef i32 @_ZNK7rocksdb21UserComparatorWrapper16CompareTimestampERKNS_5SliceES3_(ptr noundef nonnull align 8 dereferenceable(8) %43, ptr noundef nonnull align 8 dereferenceable(16) %44, ptr noundef nonnull align 8 dereferenceable(16) %46)
  %48 = icmp sge i32 %47, 0
  br label %49

49:                                               ; preds = %42, %38
  %50 = phi i1 [ true, %38 ], [ %48, %42 ]
  br label %51

51:                                               ; preds = %49, %31
  %52 = phi i1 [ false, %31 ], [ %50, %49 ]
  %53 = zext i1 %52 to i8
  store i8 %53, ptr %10, align 1, !tbaa !78
  %54 = load ptr, ptr %8, align 8, !tbaa !355
  %55 = icmp ne ptr %54, null
  br i1 %55, label %56, label %62

56:                                               ; preds = %51
  %57 = load i8, ptr %9, align 1, !tbaa !78, !range !207, !noundef !208
  %58 = trunc i8 %57 to i1
  %59 = xor i1 %58, true
  %60 = load ptr, ptr %8, align 8, !tbaa !355
  %61 = zext i1 %59 to i8
  store i8 %61, ptr %60, align 1, !tbaa !78
  br label %62

62:                                               ; preds = %56, %51
  %63 = load i8, ptr %9, align 1, !tbaa !78, !range !207, !noundef !208
  %64 = trunc i8 %63 to i1
  br i1 %64, label %65, label %68

65:                                               ; preds = %62
  %66 = load i8, ptr %10, align 1, !tbaa !78, !range !207, !noundef !208
  %67 = trunc i8 %66 to i1
  br label %68

68:                                               ; preds = %65, %62
  %69 = phi i1 [ false, %62 ], [ %67, %65 ]
  call void @llvm.lifetime.end.p0(i64 1, ptr %10) #6
  call void @llvm.lifetime.end.p0(i64 1, ptr %9) #6
  ret i1 %69
}