; Function Attrs: mustprogress uwtable
define noundef zeroext i1 @_ZN7rocksdb6DBIter9IsVisibleEmRKNS_5SliceEPb(ptr noundef nonnull readonly align 8 captures(none) dereferenceable(1112) %0, i64 noundef %1, ptr noundef nonnull align 8 dereferenceable(16) %2, ptr noundef writeonly %3) local_unnamed_addr #6 align 2 {
  %5 = getelementptr inbounds nuw i8, ptr %0, i64 240
  %6 = load ptr, ptr %5, align 8, !tbaa !183
  %7 = icmp eq ptr %6, null
  br i1 %7, label %8, label %12

8:                                                ; preds = %4
  %9 = getelementptr inbounds nuw i8, ptr %0, i64 248
  %10 = load i64, ptr %9, align 8, !tbaa !184
  %11 = icmp ule i64 %1, %10
  br label %_ZN7rocksdb12ReadCallback9IsVisibleEm.exit

12:                                               ; preds = %4
  %13 = getelementptr inbounds nuw i8, ptr %6, i64 16
  %14 = load i64, ptr %13, align 8, !tbaa !347
  %15 = icmp ult i64 %1, %14
  br i1 %15, label %_ZN7rocksdb12ReadCallback9IsVisibleEm.exit, label %16

16:                                               ; preds = %12
  %17 = getelementptr inbounds nuw i8, ptr %6, i64 8
  %18 = load i64, ptr %17, align 8, !tbaa !349
  %19 = icmp ult i64 %18, %1
  br i1 %19, label %_ZN7rocksdb12ReadCallback9IsVisibleEm.exit, label %20

20:                                               ; preds = %16
  %21 = load ptr, ptr %6, align 8, !tbaa !18
  %22 = getelementptr inbounds nuw i8, ptr %21, i64 16
  %23 = load ptr, ptr %22, align 8
  %24 = tail call noundef zeroext i1 %23(ptr noundef nonnull align 8 dereferenceable(24) %6, i64 noundef %1)
  br label %_ZN7rocksdb12ReadCallback9IsVisibleEm.exit

_ZN7rocksdb12ReadCallback9IsVisibleEm.exit:       ; preds = %20, %16, %12, %8
  %25 = phi i1 [ %11, %8 ], [ %24, %20 ], [ true, %12 ], [ false, %16 ]
  %26 = getelementptr inbounds nuw i8, ptr %0, i64 1056
  %27 = load ptr, ptr %26, align 8, !tbaa !219
  %28 = icmp eq ptr %27, null
  br i1 %28, label %37, label %29

29:                                               ; preds = %_ZN7rocksdb12ReadCallback9IsVisibleEm.exit
  %30 = getelementptr inbounds nuw i8, ptr %0, i64 72
  %31 = load ptr, ptr %30, align 8, !tbaa !145
  %32 = load ptr, ptr %31, align 8, !tbaa !18
  %33 = getelementptr inbounds nuw i8, ptr %32, i64 224
  %34 = load ptr, ptr %33, align 8
  %35 = tail call noundef i32 %34(ptr noundef nonnull align 8 dereferenceable(48) %31, ptr noundef nonnull align 8 dereferenceable(16) %2, ptr noundef nonnull align 8 dereferenceable(16) %27)
  %36 = icmp slt i32 %35, 1
  br i1 %36, label %37, label %49

37:                                               ; preds = %29, %_ZN7rocksdb12ReadCallback9IsVisibleEm.exit
  %38 = getelementptr inbounds nuw i8, ptr %0, i64 1064
  %39 = load ptr, ptr %38, align 8, !tbaa !221
  %40 = icmp eq ptr %39, null
  br i1 %40, label %49, label %41

41:                                               ; preds = %37
  %42 = getelementptr inbounds nuw i8, ptr %0, i64 72
  %43 = load ptr, ptr %42, align 8, !tbaa !145
  %44 = load ptr, ptr %43, align 8, !tbaa !18
  %45 = getelementptr inbounds nuw i8, ptr %44, i64 224
  %46 = load ptr, ptr %45, align 8
  %47 = tail call noundef i32 %46(ptr noundef nonnull align 8 dereferenceable(48) %43, ptr noundef nonnull align 8 dereferenceable(16) %2, ptr noundef nonnull align 8 dereferenceable(16) %39)
  %48 = icmp sgt i32 %47, -1
  br label %49

49:                                               ; preds = %37, %41, %29
  %50 = phi i1 [ false, %29 ], [ true, %37 ], [ %48, %41 ]
  %.not = icmp eq ptr %3, null
  br i1 %.not, label %54, label %51

51:                                               ; preds = %49
  %52 = xor i1 %25, true
  %53 = zext i1 %52 to i8
  store i8 %53, ptr %3, align 1, !tbaa !259
  br label %54

54:                                               ; preds = %51, %49
  %55 = and i1 %25, %50
  ret i1 %55
}